target datalayout = "e-m:e-p270:32:32-p271:32:32-p272:64:64-i64:64-i128:128-f80:128-n8:16:32:64-S128"
target triple = "x86_64-pc-linux-gnu"

%struct.DecodedFrames = type { ptr, i64, i64 }
%struct.AVCodecContext = type { ptr, i32, i32, ptr, i32, i32, ptr, ptr, ptr, i64, i32, i32, ptr, i32, %struct.AVRational, %struct.AVRational, %struct.AVRational, i32, i32, i32, i32, i32, %struct.AVRational, i32, i32, i32, i32, i32, i32, i32, i32, i32, i32, i32, ptr, ptr, i32, float, float, float, float, float, float, float, float, float, i32, i32, i32, i32, i32, i32, i32, i32, i32, i32, i32, i32, ptr, ptr, ptr, i32, i32, i32, i32, i32, i32, i32, i32, i32, i32, %struct.AVChannelLayout, i32, i32, i32, i32, i32, i32, i32, i32, ptr, i32, i32, i32, float, float, i32, i32, i32, i32, i32, ptr, i64, i64, float, float, i32, i32, ptr, ptr, i32, i32, i32, i32, i32, ptr, ptr, ptr, ptr, i32, i32, [8 x i64], i32, i32, i32, i32, i32, i32, i32, ptr, ptr, i32, i32, i32, i32, i32, i32, i32, i32, i32, i32, ptr, ptr, i32, i32, ptr, ptr, ptr, ptr, i32, i32, i64, i32, i32, i64, ptr, i64, ptr, i32, ptr, i32 }
%struct.AVRational = type { i32, i32 }
%struct.AVChannelLayout = type { i32, i32, %union.anon, ptr }
%union.anon = type { i64 }
%struct.AVCodecInternal = type { i32, i32, i32, ptr, ptr, ptr, ptr, ptr, ptr, ptr, i32, ptr, ptr, ptr, i32, i32, ptr, i32, ptr, ptr, i32, i32 }
%union.pthread_mutex_t = type { %struct.__pthread_mutex_s }
%struct.__pthread_mutex_s = type { i32, i32, i32, i32, i32, i16, i16, %struct.__pthread_internal_list }
%struct.__pthread_internal_list = type { ptr, ptr }
%union.pthread_cond_t = type { %struct.__pthread_cond_s }
%struct.__pthread_cond_s = type { %union.__atomic_wide_counter, %union.__atomic_wide_counter, [2 x i32], [2 x i32], i32, i32, [2 x i32] }
%union.__atomic_wide_counter = type { i64 }
%struct.PerThreadContext = type { ptr, i64, i32, i32, %union.pthread_cond_t, %union.pthread_cond_t, %union.pthread_cond_t, %union.pthread_mutex_t, %union.pthread_mutex_t, ptr, ptr, %struct.DecodedFrames, i32, i32, i32, i32, i32, i32, i32, i32, i32 }
%struct.ThreadFrame = type { ptr, [2 x ptr], ptr }
%struct.ThreadFrameProgress = type { [2 x i32] }

@.str.1 = private unnamed_addr constant [37 x i8] c"thread awaiting %d field %d from %p\0A\00", align 1

; Function Attrs: nounwind uwtable
define void @ff_thread_await_progress(ptr noundef %0, i32 noundef %1, i32 noundef %2) #0 {
  %4 = alloca ptr, align 8
  %5 = alloca i32, align 4
  %6 = alloca i32, align 4
  %7 = alloca ptr, align 8
  %8 = alloca ptr, align 8
  %9 = alloca i32, align 4
  %10 = alloca i32, align 4
  %11 = alloca i32, align 4
  %12 = alloca i32, align 4
  store ptr %0, ptr %4, align 8, !tbaa !134
  store i32 %1, ptr %5, align 4, !tbaa !39
  store i32 %2, ptr %6, align 4, !tbaa !39
  call void @llvm.lifetime.start.p0(i64 8, ptr %7) #9
  call void @llvm.lifetime.start.p0(i64 8, ptr %8) #9
  %13 = load ptr, ptr %4, align 8, !tbaa !134
  %14 = getelementptr inbounds nuw %struct.ThreadFrame, ptr %13, i32 0, i32 2
  %15 = load ptr, ptr %14, align 8, !tbaa !136
  %16 = icmp ne ptr %15, null
  br i1 %16, label %17, label %23

17:                                               ; preds = %3
  %18 = load ptr, ptr %4, align 8, !tbaa !134
  %19 = getelementptr inbounds nuw %struct.ThreadFrame, ptr %18, i32 0, i32 2
  %20 = load ptr, ptr %19, align 8, !tbaa !136
  %21 = getelementptr inbounds nuw %struct.ThreadFrameProgress, ptr %20, i32 0, i32 0
  %22 = getelementptr inbounds [2 x i32], ptr %21, i64 0, i64 0
  br label %24

23:                                               ; preds = %3
  br label %24

24:                                               ; preds = %23, %17
  %25 = phi ptr [ %22, %17 ], [ null, %23 ]
  store ptr %25, ptr %8, align 8, !tbaa !85
  %26 = load ptr, ptr %8, align 8, !tbaa !85
  %27 = icmp ne ptr %26, null
  br i1 %27, label %28, label %37

28:                                               ; preds = %24
  %29 = load ptr, ptr %8, align 8, !tbaa !85
  %30 = load i32, ptr %6, align 4, !tbaa !39
  %31 = sext i32 %30 to i64
  %32 = getelementptr inbounds i32, ptr %29, i64 %31
  %33 = load atomic i32, ptr %32 acquire, align 4
  store i32 %33, ptr %9, align 4
  %34 = load i32, ptr %9, align 4, !tbaa !39
  %35 = load i32, ptr %5, align 4, !tbaa !39
  %36 = icmp sge i32 %34, %35
  br i1 %36, label %37, label %38

37:                                               ; preds = %28, %24
  store i32 1, ptr %10, align 4
  br label %87

38:                                               ; preds = %28
  %39 = load ptr, ptr %4, align 8, !tbaa !134
  %40 = getelementptr inbounds nuw %struct.ThreadFrame, ptr %39, i32 0, i32 1
  %41 = load i32, ptr %6, align 4, !tbaa !39
  %42 = sext i32 %41 to i64
  %43 = getelementptr inbounds [2 x ptr], ptr %40, i64 0, i64 %42
  %44 = load ptr, ptr %43, align 8, !tbaa !4
  %45 = getelementptr inbounds nuw %struct.AVCodecContext, ptr %44, i32 0, i32 7
  %46 = load ptr, ptr %45, align 8, !tbaa !11
  %47 = getelementptr inbounds nuw %struct.AVCodecInternal, ptr %46, i32 0, i32 5
  %48 = load ptr, ptr %47, align 8, !tbaa !31
  store ptr %48, ptr %7, align 8, !tbaa !53
  %49 = load ptr, ptr %7, align 8, !tbaa !53
  %50 = getelementptr inbounds nuw %struct.PerThreadContext, ptr %49, i32 0, i32 18
  %51 = load atomic i32, ptr %50 monotonic, align 8
  store i32 %51, ptr %11, align 4
  %52 = load i32, ptr %11, align 4, !tbaa !39
  %53 = icmp ne i32 %52, 0
  br i1 %53, label %54, label %64

54:                                               ; preds = %38
  %55 = load ptr, ptr %4, align 8, !tbaa !134
  %56 = getelementptr inbounds nuw %struct.ThreadFrame, ptr %55, i32 0, i32 1
  %57 = load i32, ptr %6, align 4, !tbaa !39
  %58 = sext i32 %57 to i64
  %59 = getelementptr inbounds [2 x ptr], ptr %56, i64 0, i64 %58
  %60 = load ptr, ptr %59, align 8, !tbaa !4
  %61 = load i32, ptr %5, align 4, !tbaa !39
  %62 = load i32, ptr %6, align 4, !tbaa !39
  %63 = load ptr, ptr %8, align 8, !tbaa !85
  call void (ptr, i32, ptr, ...) @av_log(ptr noundef %60, i32 noundef 48, ptr noundef @.str.1, i32 noundef %61, i32 noundef %62, ptr noundef %63)
  br label %64

64:                                               ; preds = %54, %38
  %65 = load ptr, ptr %7, align 8, !tbaa !53
  %66 = getelementptr inbounds nuw %struct.PerThreadContext, ptr %65, i32 0, i32 8
  %67 = call i32 @pthread_mutex_lock(ptr noundef %66) #9
  br label %68

68:                                               ; preds = %77, %64
  %69 = load ptr, ptr %8, align 8, !tbaa !85
  %70 = load i32, ptr %6, align 4, !tbaa !39
  %71 = sext i32 %70 to i64
  %72 = getelementptr inbounds i32, ptr %69, i64 %71
  %73 = load atomic i32, ptr %72 monotonic, align 4
  store i32 %73, ptr %12, align 4
  %74 = load i32, ptr %12, align 4, !tbaa !39
  %75 = load i32, ptr %5, align 4, !tbaa !39
  %76 = icmp slt i32 %74, %75
  br i1 %76, label %77, label %83

77:                                               ; preds = %68
  %78 = load ptr, ptr %7, align 8, !tbaa !53
  %79 = getelementptr inbounds nuw %struct.PerThreadContext, ptr %78, i32 0, i32 5
  %80 = load ptr, ptr %7, align 8, !tbaa !53
  %81 = getelementptr inbounds nuw %struct.PerThreadContext, ptr %80, i32 0, i32 8
  %82 = call i32 @pthread_cond_wait(ptr noundef %79, ptr noundef %81)
  br label %68, !llvm.loop !139

83:                                               ; preds = %68
  %84 = load ptr, ptr %7, align 8, !tbaa !53
  %85 = getelementptr inbounds nuw %struct.PerThreadContext, ptr %84, i32 0, i32 8
  %86 = call i32 @pthread_mutex_unlock(ptr noundef %85) #9
  store i32 0, ptr %10, align 4
  br label %87

87:                                               ; preds = %83, %37
  call void @llvm.lifetime.end.p0(i64 8, ptr %8) #9
  call void @llvm.lifetime.end.p0(i64 8, ptr %7) #9
  %88 = load i32, ptr %10, align 4
  switch i32 %88, label %90 [
    i32 0, label %89
    i32 1, label %89
  ]

89:                                               ; preds = %87, %87
  ret void

90:                                               ; preds = %87
  unreachable
}